; Function Attrs: mustprogress nounwind uwtable
define dso_local void @_ZN5clang29NestedNameSpecifierLocBuilder6ExtendERNS_10ASTContextEPNS_18NamespaceAliasDeclENS_14SourceLocationES5_(ptr nocapture noundef nonnull align 8 dereferenceable(24) %0, ptr noundef nonnull align 8 dereferenceable(23096) %1, ptr noundef %2, i32 %3, i32 %4) local_unnamed_addr #0 align 2 {
  %6 = alloca i32, align 4
  %7 = alloca i32, align 4
  %8 = alloca %"class.clang::NestedNameSpecifier", align 8
  %9 = load ptr, ptr %0, align 8
  call void @llvm.lifetime.start.p0(i64 24, ptr nonnull %8)
  store i64 0, ptr %8, align 8
  %10 = getelementptr inbounds nuw i8, ptr %8, i64 8
  %11 = ptrtoint ptr %9 to i64
  %.masked.i = and i64 %11, -7
  %12 = or disjoint i64 %.masked.i, 2
  store i64 %12, ptr %10, align 8
  %13 = getelementptr inbounds nuw i8, ptr %8, i64 16
  store ptr %2, ptr %13, align 8
  %14 = call noundef ptr @_ZN5clang19NestedNameSpecifier12FindOrInsertERKNS_10ASTContextERKS0_(ptr noundef nonnull align 8 dereferenceable(23096) %1, ptr noundef nonnull align 8 dereferenceable(24) %8)
  call void @llvm.lifetime.end.p0(i64 24, ptr nonnull %8)
  store ptr %14, ptr %0, align 8
  %15 = getelementptr inbounds nuw i8, ptr %0, i64 8
  %16 = getelementptr inbounds nuw i8, ptr %0, i64 16
  %17 = getelementptr inbounds nuw i8, ptr %0, i64 20
  call void @llvm.lifetime.start.p0(i64 4, ptr nonnull %7)
  store i32 %3, ptr %7, align 4
  %18 = getelementptr inbounds i8, ptr %7, i64 4
  call fastcc void @_ZL6AppendPcS_RS_RjS1_(ptr noundef nonnull %7, ptr noundef nonnull %18, ptr noundef nonnull align 8 dereferenceable(8) %15, ptr noundef nonnull align 4 dereferenceable(4) %16, ptr noundef nonnull align 4 dereferenceable(4) %17)
  call void @llvm.lifetime.end.p0(i64 4, ptr nonnull %7)
  call void @llvm.lifetime.start.p0(i64 4, ptr nonnull %6)
  store i32 %4, ptr %6, align 4
  %19 = getelementptr inbounds i8, ptr %6, i64 4
  call fastcc void @_ZL6AppendPcS_RS_RjS1_(ptr noundef nonnull %6, ptr noundef nonnull %19, ptr noundef nonnull align 8 dereferenceable(8) %15, ptr noundef nonnull align 4 dereferenceable(4) %16, ptr noundef nonnull align 4 dereferenceable(4) %17)
  call void @llvm.lifetime.end.p0(i64 4, ptr nonnull %6)
  ret void
}